target datalayout = "e-m:e-p270:32:32-p271:32:32-p272:64:64-i64:64-i128:128-f80:128-n8:16:32:64-S128"
target triple = "x86_64-pc-linux-gnu"

%class.btGeneric6DofConstraint = type <{ %class.btTypedConstraint, %class.btTransform, %class.btTransform, [3 x %class.btJacobianEntry], [3 x %class.btJacobianEntry], %class.btTranslationalLimitMotor, [3 x %class.btRotationalLimitMotor], float, %class.btTransform, %class.btTransform, %class.btVector3, [3 x %class.btVector3], %class.btVector3, float, float, i8, [3 x i8], %class.btVector3, i8, i8, [2 x i8], i32, i8, [3 x i8] }>
%class.btTypedConstraint = type { ptr, %struct.btTypedObject, i32, %union.anon.0, float, i8, i8, i32, ptr, ptr, float, float, ptr }
%struct.btTypedObject = type { i32 }
%union.anon.0 = type { ptr }
%class.btJacobianEntry = type { %class.btVector3, %class.btVector3, %class.btVector3, %class.btVector3, %class.btVector3, float }
%class.btTranslationalLimitMotor = type { %class.btVector3, %class.btVector3, %class.btVector3, float, float, float, %class.btVector3, %class.btVector3, %class.btVector3, [3 x i8], %class.btVector3, %class.btVector3, %class.btVector3, %class.btVector3, [3 x i32] }
%class.btRotationalLimitMotor = type { float, float, float, float, float, float, float, float, float, float, float, i8, float, float, i32, float }
%class.btTransform = type { %class.btMatrix3x3, %class.btVector3 }
%class.btMatrix3x3 = type { [3 x %class.btVector3] }
%class.btVector3 = type { [4 x float] }

; Function Attrs: mustprogress nounwind uwtable
define dso_local { <2 x float>, <2 x float> } @_ZNK23btGeneric6DofConstraint7getAxisEi(ptr noundef nonnull align 8 dereferenceable(1333) %0, i32 noundef %1) #1 align 2 {
  %3 = alloca %class.btVector3, align 4
  %4 = alloca ptr, align 8
  %5 = alloca i32, align 4
  store ptr %0, ptr %4, align 8, !tbaa !12
  store i32 %1, ptr %5, align 4, !tbaa !9
  %6 = load ptr, ptr %4, align 8
  %7 = getelementptr inbounds nuw %class.btGeneric6DofConstraint, ptr %6, i32 0, i32 11
  %8 = load i32, ptr %5, align 4, !tbaa !9
  %9 = sext i32 %8 to i64
  %10 = getelementptr inbounds [3 x %class.btVector3], ptr %7, i64 0, i64 %9
  call void @llvm.memcpy.p0.p0.i64(ptr align 4 %3, ptr align 8 %10, i64 16, i1 false), !tbaa.struct !37
  %11 = getelementptr inbounds nuw %class.btVector3, ptr %3, i32 0, i32 0
  %12 = load { <2 x float>, <2 x float> }, ptr %11, align 4
  ret { <2 x float>, <2 x float> } %12
}